; ModuleID = '49/24.c'
source_filename = "49/24.c"
target datalayout = "e-m:e-p270:32:32-p271:32:32-p272:64:64-i64:64-f80:128-n8:16:32:64-S128"
target triple = "x86_64-pc-linux-gnu"

@.str = private unnamed_addr constant [6 x i8] c"%c%c\0A\00", align 1
@.str.1 = private unnamed_addr constant [3 x i8] c"%c\00", align 1
@.str.2 = private unnamed_addr constant [4 x i8] c"%c\0A\00", align 1

; Function Attrs: noinline nounwind uwtable
define dso_local void @main() #0 {
  %1 = alloca i32, align 4
  %2 = alloca i32, align 4
  %3 = alloca i32, align 4
  %4 = alloca i32, align 4
  %5 = alloca i32, align 4
  %6 = alloca i32, align 4
  %7 = alloca i32, align 4
  %8 = alloca i32, align 4
  %9 = alloca [500 x i8], align 16
  %10 = getelementptr inbounds [500 x i8], [500 x i8]* %9, i64 0, i64 0
  %11 = call i32 (i8*, ...) bitcast (i32 (...)* @gets to i32 (i8*, ...)*)(i8* %10)
  %12 = getelementptr inbounds [500 x i8], [500 x i8]* %9, i64 0, i64 0
  %13 = call i64 @strlen(i8* %12) #3
  %14 = trunc i64 %13 to i32
  store i32 %14, i32* %6, align 4
  store i32 0, i32* %3, align 4
  br label %15

15:                                               ; preds = %47, %0
  %16 = load i32, i32* %3, align 4
  %17 = load i32, i32* %6, align 4
  %18 = sub nsw i32 %17, 1
  %19 = icmp slt i32 %16, %18
  br i1 %19, label %20, label %50

20:                                               ; preds = %15
  %21 = load i32, i32* %3, align 4
  %22 = sext i32 %21 to i64
  %23 = getelementptr inbounds [500 x i8], [500 x i8]* %9, i64 0, i64 %22
  %24 = load i8, i8* %23, align 1
  %25 = sext i8 %24 to i32
  %26 = load i32, i32* %3, align 4
  %27 = add nsw i32 %26, 1
  %28 = sext i32 %27 to i64
  %29 = getelementptr inbounds [500 x i8], [500 x i8]* %9, i64 0, i64 %28
  %30 = load i8, i8* %29, align 1
  %31 = sext i8 %30 to i32
  %32 = icmp eq i32 %25, %31
  br i1 %32, label %33, label %46

33:                                               ; preds = %20
  %34 = load i32, i32* %3, align 4
  %35 = sext i32 %34 to i64
  %36 = getelementptr inbounds [500 x i8], [500 x i8]* %9, i64 0, i64 %35
  %37 = load i8, i8* %36, align 1
  %38 = sext i8 %37 to i32
  %39 = load i32, i32* %3, align 4
  %40 = add nsw i32 %39, 1
  %41 = sext i32 %40 to i64
  %42 = getelementptr inbounds [500 x i8], [500 x i8]* %9, i64 0, i64 %41
  %43 = load i8, i8* %42, align 1
  %44 = sext i8 %43 to i32
  %45 = call i32 (i8*, ...) @printf(i8* getelementptr inbounds ([6 x i8], [6 x i8]* @.str, i64 0, i64 0), i32 %38, i32 %44)
  br label %46

46:                                               ; preds = %33, %20
  br label %47

47:                                               ; preds = %46
  %48 = load i32, i32* %3, align 4
  %49 = add nsw i32 %48, 1
  store i32 %49, i32* %3, align 4
  br label %15

50:                                               ; preds = %15
  store i32 2, i32* %1, align 4
  br label %51

51:                                               ; preds = %123, %50
  %52 = load i32, i32* %1, align 4
  %53 = load i32, i32* %6, align 4
  %54 = icmp slt i32 %52, %53
  br i1 %54, label %55, label %126

55:                                               ; preds = %51
  store i32 0, i32* %3, align 4
  br label %56

56:                                               ; preds = %119, %55
  %57 = load i32, i32* %3, align 4
  %58 = load i32, i32* %6, align 4
  %59 = icmp slt i32 %57, %58
  br i1 %59, label %60, label %122

60:                                               ; preds = %56
  %61 = load i32, i32* %3, align 4
  store i32 %61, i32* %4, align 4
  %62 = load i32, i32* %1, align 4
  %63 = load i32, i32* %3, align 4
  %64 = add nsw i32 %62, %63
  store i32 %64, i32* %5, align 4
  %65 = load i32, i32* %4, align 4
  store i32 %65, i32* %7, align 4
  %66 = load i32, i32* %5, align 4
  store i32 %66, i32* %8, align 4
  br label %67

67:                                               ; preds = %85, %60
  %68 = load i32, i32* %4, align 4
  %69 = sext i32 %68 to i64
  %70 = getelementptr inbounds [500 x i8], [500 x i8]* %9, i64 0, i64 %69
  %71 = load i8, i8* %70, align 1
  %72 = sext i8 %71 to i32
  %73 = load i32, i32* %5, align 4
  %74 = sext i32 %73 to i64
  %75 = getelementptr inbounds [500 x i8], [500 x i8]* %9, i64 0, i64 %74
  %76 = load i8, i8* %75, align 1
  %77 = sext i8 %76 to i32
  %78 = icmp eq i32 %72, %77
  br i1 %78, label %79, label %83

79:                                               ; preds = %67
  %80 = load i32, i32* %4, align 4
  %81 = load i32, i32* %5, align 4
  %82 = icmp sle i32 %80, %81
  br label %83

83:                                               ; preds = %79, %67
  %84 = phi i1 [ false, %67 ], [ %82, %79 ]
  br i1 %84, label %85, label %90

85:                                               ; preds = %83
  %86 = load i32, i32* %4, align 4
  %87 = add nsw i32 %86, 1
  store i32 %87, i32* %4, align 4
  %88 = load i32, i32* %5, align 4
  %89 = add nsw i32 %88, -1
  store i32 %89, i32* %5, align 4
  br label %67

90:                                               ; preds = %83
  %91 = load i32, i32* %5, align 4
  %92 = load i32, i32* %4, align 4
  %93 = sub nsw i32 %91, %92
  %94 = icmp slt i32 %93, 1
  br i1 %94, label %95, label %118

95:                                               ; preds = %90
  %96 = load i32, i32* %7, align 4
  store i32 %96, i32* %2, align 4
  br label %97

97:                                               ; preds = %108, %95
  %98 = load i32, i32* %2, align 4
  %99 = load i32, i32* %8, align 4
  %100 = icmp slt i32 %98, %99
  br i1 %100, label %101, label %111

101:                                              ; preds = %97
  %102 = load i32, i32* %2, align 4
  %103 = sext i32 %102 to i64
  %104 = getelementptr inbounds [500 x i8], [500 x i8]* %9, i64 0, i64 %103
  %105 = load i8, i8* %104, align 1
  %106 = sext i8 %105 to i32
  %107 = call i32 (i8*, ...) @printf(i8* getelementptr inbounds ([3 x i8], [3 x i8]* @.str.1, i64 0, i64 0), i32 %106)
  br label %108

108:                                              ; preds = %101
  %109 = load i32, i32* %2, align 4
  %110 = add nsw i32 %109, 1
  store i32 %110, i32* %2, align 4
  br label %97

111:                                              ; preds = %97
  %112 = load i32, i32* %8, align 4
  %113 = sext i32 %112 to i64
  %114 = getelementptr inbounds [500 x i8], [500 x i8]* %9, i64 0, i64 %113
  %115 = load i8, i8* %114, align 1
  %116 = sext i8 %115 to i32
  %117 = call i32 (i8*, ...) @printf(i8* getelementptr inbounds ([4 x i8], [4 x i8]* @.str.2, i64 0, i64 0), i32 %116)
  br label %118

118:                                              ; preds = %111, %90
  br label %119

119:                                              ; preds = %118
  %120 = load i32, i32* %3, align 4
  %121 = add nsw i32 %120, 1
  store i32 %121, i32* %3, align 4
  br label %56

122:                                              ; preds = %56
  br label %123

123:                                              ; preds = %122
  %124 = load i32, i32* %1, align 4
  %125 = add nsw i32 %124, 1
  store i32 %125, i32* %1, align 4
  br label %51

126:                                              ; preds = %51
  ret void
}

declare dso_local i32 @gets(...) #1

; Function Attrs: nounwind readonly
declare dso_local i64 @strlen(i8*) #2

declare dso_local i32 @printf(i8*, ...) #1


!llvm.module.flags = !{!0}
!llvm.ident = !{!1}

!0 = !{i32 1, !"wchar_size", i32 4}
!1 = !{!"clang version 10.0.0-4ubuntu1 "}
